; Function Attrs: mustprogress uwtable
define dso_local noundef i32 @_ZNK7testing8UnitTest22failed_test_case_countEv(ptr noundef nonnull readonly align 8 captures(none) dereferenceable(72) %0) local_unnamed_addr #3 align 2 {
  %2 = getelementptr inbounds nuw i8, ptr %0, i64 64
  %3 = load ptr, ptr %2, align 8, !tbaa !57
  %4 = getelementptr inbounds nuw i8, ptr %3, i64 184
  %5 = load ptr, ptr %4, align 8, !tbaa !698
  %6 = getelementptr inbounds nuw i8, ptr %3, i64 192
  %7 = load ptr, ptr %6, align 8, !tbaa !698
  %.not7.i.i = icmp eq ptr %5, %7
  br i1 %.not7.i.i, label %_ZNK7testing8internal12UnitTestImpl23failed_test_suite_countEv.exit, label %.lr.ph.i.i

.lr.ph.i.i:                                       ; preds = %1, %_ZN7testing8internalL15TestSuiteFailedEPKNS_9TestSuiteE.exit.i
  %8 = phi ptr [ %16, %_ZN7testing8internalL15TestSuiteFailedEPKNS_9TestSuiteE.exit.i ], [ %7, %1 ]
  %.09.i.i = phi i32 [ %spec.select.i.i, %_ZN7testing8internalL15TestSuiteFailedEPKNS_9TestSuiteE.exit.i ], [ 0, %1 ]
  %.sroa.04.08.i.i = phi ptr [ %18, %_ZN7testing8internalL15TestSuiteFailedEPKNS_9TestSuiteE.exit.i ], [ %5, %1 ]
  %9 = load ptr, ptr %.sroa.04.08.i.i, align 8, !tbaa !699
  %10 = getelementptr inbounds nuw i8, ptr %9, i64 112
  %11 = load i8, ptr %10, align 8, !tbaa !700, !range !17, !noundef !18
  %12 = trunc nuw i8 %11 to i1
  br i1 %12, label %13, label %_ZN7testing8internalL15TestSuiteFailedEPKNS_9TestSuiteE.exit.i

13:                                               ; preds = %.lr.ph.i.i
  %14 = tail call noundef zeroext i1 @_ZNK7testing9TestSuite6FailedEv(ptr noundef nonnull align 8 dereferenceable(264) %9)
  %15 = zext i1 %14 to i32
  %.pre.i = load ptr, ptr %6, align 8, !tbaa !698
  br label %_ZN7testing8internalL15TestSuiteFailedEPKNS_9TestSuiteE.exit.i

_ZN7testing8internalL15TestSuiteFailedEPKNS_9TestSuiteE.exit.i: ; preds = %13, %.lr.ph.i.i
  %16 = phi ptr [ %8, %.lr.ph.i.i ], [ %.pre.i, %13 ]
  %17 = phi i32 [ 0, %.lr.ph.i.i ], [ %15, %13 ]
  %spec.select.i.i = add nuw nsw i32 %17, %.09.i.i
  %18 = getelementptr inbounds nuw i8, ptr %.sroa.04.08.i.i, i64 8
  %.not.i.i = icmp eq ptr %18, %16
  br i1 %.not.i.i, label %_ZNK7testing8internal12UnitTestImpl23failed_test_suite_countEv.exit, label %.lr.ph.i.i, !llvm.loop !713

_ZNK7testing8internal12UnitTestImpl23failed_test_suite_countEv.exit: ; preds = %_ZN7testing8internalL15TestSuiteFailedEPKNS_9TestSuiteE.exit.i, %1
  %.0.lcssa.i.i = phi i32 [ 0, %1 ], [ %spec.select.i.i, %_ZN7testing8internalL15TestSuiteFailedEPKNS_9TestSuiteE.exit.i ]
  ret i32 %.0.lcssa.i.i
}